target datalayout = "e-m:e-p270:32:32-p271:32:32-p272:64:64-i64:64-i128:128-f80:128-n8:16:32:64-S128"
target triple = "x86_64-pc-linux-gnu"

@recurse_submodules = internal global i32 1, align 4
@.str.70 = private unnamed_addr constant [16 x i8] c"push.followtags\00", align 1
@.str.71 = private unnamed_addr constant [21 x i8] c"push.autosetupremote\00", align 1
@.str.72 = private unnamed_addr constant [13 x i8] c"push.gpgsign\00", align 1
@.str.73 = private unnamed_addr constant [9 x i8] c"if-asked\00", align 1
@.str.74 = private unnamed_addr constant [23 x i8] c"invalid value for '%s'\00", align 1
@.str.75 = private unnamed_addr constant [23 x i8] c"push.recursesubmodules\00", align 1
@.str.76 = private unnamed_addr constant [18 x i8] c"submodule.recurse\00", align 1
@.str.77 = private unnamed_addr constant [16 x i8] c"push.pushoption\00", align 1
@.str.78 = private unnamed_addr constant [11 x i8] c"color.push\00", align 1
@push_use_color = internal global i32 -1, align 4
@.str.79 = private unnamed_addr constant [12 x i8] c"color.push.\00", align 1
@.str.80 = private unnamed_addr constant [24 x i8] c"push.useforceifincludes\00", align 1
@push_options_config = internal global { ptr, i64, i64, i8, [7 x i8], ptr } { ptr null, i64 0, i64 0, i8 1, [7 x i8] zeroinitializer, ptr null }, align 8
@.str.85 = private unnamed_addr constant [1 x i8] zeroinitializer, align 1
@git_gettext_enabled = external global i32, align 4

; Function Attrs: inlinehint nounwind uwtable
define internal zeroext i1 @skip_prefix(ptr noundef %0, ptr noundef %1, ptr noundef %2) #4 {
  %4 = alloca i1, align 1
  %5 = alloca ptr, align 8
  %6 = alloca ptr, align 8
  %7 = alloca ptr, align 8
  store ptr %0, ptr %5, align 8, !tbaa !11
  store ptr %1, ptr %6, align 8, !tbaa !11
  store ptr %2, ptr %7, align 8, !tbaa !8
  br label %8

8:                                                ; preds = %16, %3
  %9 = load ptr, ptr %6, align 8, !tbaa !11
  %10 = load i8, ptr %9, align 1, !tbaa !56
  %11 = icmp ne i8 %10, 0
  br i1 %11, label %15, label %12

12:                                               ; preds = %8
  %13 = load ptr, ptr %5, align 8, !tbaa !11
  %14 = load ptr, ptr %7, align 8, !tbaa !8
  store ptr %13, ptr %14, align 8, !tbaa !11
  store i1 true, ptr %4, align 1
  br label %27

15:                                               ; preds = %8
  br label %16

16:                                               ; preds = %15
  %17 = load ptr, ptr %5, align 8, !tbaa !11
  %18 = getelementptr inbounds nuw i8, ptr %17, i32 1
  store ptr %18, ptr %5, align 8, !tbaa !11
  %19 = load i8, ptr %17, align 1, !tbaa !56
  %20 = sext i8 %19 to i32
  %21 = load ptr, ptr %6, align 8, !tbaa !11
  %22 = getelementptr inbounds nuw i8, ptr %21, i32 1
  store ptr %22, ptr %6, align 8, !tbaa !11
  %23 = load i8, ptr %21, align 1, !tbaa !56
  %24 = sext i8 %23 to i32
  %25 = icmp eq i32 %20, %24
  br i1 %25, label %8, label %26, !llvm.loop !78

26:                                               ; preds = %16
  store i1 false, ptr %4, align 1
  br label %27

27:                                               ; preds = %26, %12
  %28 = load i1, ptr %4, align 1
  ret i1 %28
}

; Function Attrs: inlinehint nounwind uwtable
define internal i32 @const_error() #4 {
  ret i32 -1
}

; Function Attrs: inlinehint nounwind uwtable
define internal ptr @_(ptr noundef %0) #4 {
  %2 = alloca ptr, align 8
  %3 = alloca ptr, align 8
  store ptr %0, ptr %3, align 8, !tbaa !11
  %4 = load ptr, ptr %3, align 8, !tbaa !11
  %5 = load i8, ptr %4, align 1, !tbaa !56
  %6 = icmp ne i8 %5, 0
  br i1 %6, label %8, label %7

7:                                                ; preds = %1
  store ptr @.str.85, ptr %2, align 8
  br label %16

8:                                                ; preds = %1
  %9 = load i32, ptr @git_gettext_enabled, align 4, !tbaa !4
  %10 = icmp ne i32 %9, 0
  br i1 %10, label %13, label %11

11:                                               ; preds = %8
  %12 = load ptr, ptr %3, align 8, !tbaa !11
  store ptr %12, ptr %2, align 8
  br label %16

13:                                               ; preds = %8
  %14 = load ptr, ptr %3, align 8, !tbaa !11
  %15 = call ptr @dcgettext(ptr noundef null, ptr noundef %14, i32 noundef 5) #9
  store ptr %15, ptr %2, align 8
  br label %16

16:                                               ; preds = %13, %11, %7
  %17 = load ptr, ptr %2, align 8
  ret ptr %17
}

; Function Attrs: nounwind uwtable
define internal void @set_push_cert_flags(ptr noundef %0, i32 noundef %1) #0 {
  %3 = alloca ptr, align 8
  %4 = alloca i32, align 4
  store ptr %0, ptr %3, align 8, !tbaa !51
  store i32 %1, ptr %4, align 4, !tbaa !4
  %5 = load i32, ptr %4, align 4, !tbaa !4
  switch i32 %5, label %24 [
    i32 0, label %6
    i32 2, label %10
    i32 1, label %17
  ]

6:                                                ; preds = %2
  %7 = load ptr, ptr %3, align 8, !tbaa !51
  %8 = load i32, ptr %7, align 4, !tbaa !4
  %9 = and i32 %8, -6145
  store i32 %9, ptr %7, align 4, !tbaa !4
  br label %24

10:                                               ; preds = %2
  %11 = load ptr, ptr %3, align 8, !tbaa !51
  %12 = load i32, ptr %11, align 4, !tbaa !4
  %13 = or i32 %12, 2048
  store i32 %13, ptr %11, align 4, !tbaa !4
  %14 = load ptr, ptr %3, align 8, !tbaa !51
  %15 = load i32, ptr %14, align 4, !tbaa !4
  %16 = and i32 %15, -4097
  store i32 %16, ptr %14, align 4, !tbaa !4
  br label %24

17:                                               ; preds = %2
  %18 = load ptr, ptr %3, align 8, !tbaa !51
  %19 = load i32, ptr %18, align 4, !tbaa !4
  %20 = or i32 %19, 4096
  store i32 %20, ptr %18, align 4, !tbaa !4
  %21 = load ptr, ptr %3, align 8, !tbaa !51
  %22 = load i32, ptr %21, align 4, !tbaa !4
  %23 = and i32 %22, -2049
  store i32 %23, ptr %21, align 4, !tbaa !4
  br label %24

24:                                               ; preds = %2, %17, %10, %6
  ret void
}

; Function Attrs: nounwind uwtable
define internal i32 @git_push_config(ptr noundef %0, ptr noundef %1, ptr noundef %2, ptr noundef %3) #0 {
  %5 = alloca i32, align 4
  %6 = alloca ptr, align 8
  %7 = alloca ptr, align 8
  %8 = alloca ptr, align 8
  %9 = alloca ptr, align 8
  %10 = alloca ptr, align 8
  %11 = alloca ptr, align 8
  %12 = alloca i32, align 4
  %13 = alloca i32, align 4
  %14 = alloca i32, align 4
  store ptr %0, ptr %6, align 8, !tbaa !11
  store ptr %1, ptr %7, align 8, !tbaa !11
  store ptr %2, ptr %8, align 8, !tbaa !54
  store ptr %3, ptr %9, align 8, !tbaa !53
  call void @llvm.lifetime.start.p0(i64 8, ptr %10) #9
  call void @llvm.lifetime.start.p0(i64 8, ptr %11) #9
  %15 = load ptr, ptr %9, align 8, !tbaa !53
  store ptr %15, ptr %11, align 8, !tbaa !51
  %16 = load ptr, ptr %6, align 8, !tbaa !11
  %17 = call i32 @strcmp(ptr noundef %16, ptr noundef @.str.70) #11
  %18 = icmp ne i32 %17, 0
  br i1 %18, label %33, label %19

19:                                               ; preds = %4
  %20 = load ptr, ptr %6, align 8, !tbaa !11
  %21 = load ptr, ptr %7, align 8, !tbaa !11
  %22 = call i32 @git_config_bool(ptr noundef %20, ptr noundef %21)
  %23 = icmp ne i32 %22, 0
  br i1 %23, label %24, label %28

24:                                               ; preds = %19
  %25 = load ptr, ptr %11, align 8, !tbaa !51
  %26 = load i32, ptr %25, align 4, !tbaa !4
  %27 = or i32 %26, 1024
  store i32 %27, ptr %25, align 4, !tbaa !4
  br label %32

28:                                               ; preds = %19
  %29 = load ptr, ptr %11, align 8, !tbaa !51
  %30 = load i32, ptr %29, align 4, !tbaa !4
  %31 = and i32 %30, -1025
  store i32 %31, ptr %29, align 4, !tbaa !4
  br label %32

32:                                               ; preds = %28, %24
  store i32 0, ptr %5, align 4
  store i32 1, ptr %12, align 4
  br label %161

33:                                               ; preds = %4
  %34 = load ptr, ptr %6, align 8, !tbaa !11
  %35 = call i32 @strcmp(ptr noundef %34, ptr noundef @.str.71) #11
  %36 = icmp ne i32 %35, 0
  br i1 %36, label %47, label %37

37:                                               ; preds = %33
  %38 = load ptr, ptr %6, align 8, !tbaa !11
  %39 = load ptr, ptr %7, align 8, !tbaa !11
  %40 = call i32 @git_config_bool(ptr noundef %38, ptr noundef %39)
  %41 = icmp ne i32 %40, 0
  br i1 %41, label %42, label %46

42:                                               ; preds = %37
  %43 = load ptr, ptr %11, align 8, !tbaa !51
  %44 = load i32, ptr %43, align 4, !tbaa !4
  %45 = or i32 %44, 131072
  store i32 %45, ptr %43, align 4, !tbaa !4
  br label %46

46:                                               ; preds = %42, %37
  store i32 0, ptr %5, align 4
  store i32 1, ptr %12, align 4
  br label %161

47:                                               ; preds = %33
  %48 = load ptr, ptr %6, align 8, !tbaa !11
  %49 = call i32 @strcmp(ptr noundef %48, ptr noundef @.str.72) #11
  %50 = icmp ne i32 %49, 0
  br i1 %50, label %71, label %51

51:                                               ; preds = %47
  %52 = load ptr, ptr %7, align 8, !tbaa !11
  %53 = call i32 @git_parse_maybe_bool(ptr noundef %52)
  switch i32 %53, label %58 [
    i32 0, label %54
    i32 1, label %56
  ]

54:                                               ; preds = %51
  %55 = load ptr, ptr %11, align 8, !tbaa !51
  call void @set_push_cert_flags(ptr noundef %55, i32 noundef 0)
  br label %70

56:                                               ; preds = %51
  %57 = load ptr, ptr %11, align 8, !tbaa !51
  call void @set_push_cert_flags(ptr noundef %57, i32 noundef 2)
  br label %70

58:                                               ; preds = %51
  %59 = load ptr, ptr %7, align 8, !tbaa !11
  %60 = call i32 @strcasecmp(ptr noundef %59, ptr noundef @.str.73) #11
  %61 = icmp ne i32 %60, 0
  br i1 %61, label %64, label %62

62:                                               ; preds = %58
  %63 = load ptr, ptr %11, align 8, !tbaa !51
  call void @set_push_cert_flags(ptr noundef %63, i32 noundef 1)
  br label %69

64:                                               ; preds = %58
  %65 = call ptr @_(ptr noundef @.str.74)
  %66 = load ptr, ptr %6, align 8, !tbaa !11
  %67 = call i32 (ptr, ...) @error(ptr noundef %65, ptr noundef %66)
  %68 = call i32 @const_error()
  store i32 %68, ptr %5, align 4
  store i32 1, ptr %12, align 4
  br label %161

69:                                               ; preds = %62
  br label %70

70:                                               ; preds = %69, %56, %54
  br label %154

71:                                               ; preds = %47
  %72 = load ptr, ptr %6, align 8, !tbaa !11
  %73 = call i32 @strcmp(ptr noundef %72, ptr noundef @.str.75) #11
  %74 = icmp ne i32 %73, 0
  br i1 %74, label %79, label %75

75:                                               ; preds = %71
  %76 = load ptr, ptr %6, align 8, !tbaa !11
  %77 = load ptr, ptr %7, align 8, !tbaa !11
  %78 = call i32 @parse_push_recurse_submodules_arg(ptr noundef %76, ptr noundef %77)
  store i32 %78, ptr @recurse_submodules, align 4, !tbaa !4
  br label %153

79:                                               ; preds = %71
  %80 = load ptr, ptr %6, align 8, !tbaa !11
  %81 = call i32 @strcmp(ptr noundef %80, ptr noundef @.str.76) #11
  %82 = icmp ne i32 %81, 0
  br i1 %82, label %90, label %83

83:                                               ; preds = %79
  call void @llvm.lifetime.start.p0(i64 4, ptr %13) #9
  %84 = load ptr, ptr %6, align 8, !tbaa !11
  %85 = load ptr, ptr %7, align 8, !tbaa !11
  %86 = call i32 @git_config_bool(ptr noundef %84, ptr noundef %85)
  %87 = icmp ne i32 %86, 0
  %88 = select i1 %87, i32 -1, i32 0
  store i32 %88, ptr %13, align 4, !tbaa !4
  %89 = load i32, ptr %13, align 4, !tbaa !4
  store i32 %89, ptr @recurse_submodules, align 4, !tbaa !4
  call void @llvm.lifetime.end.p0(i64 4, ptr %13) #9
  br label %152

90:                                               ; preds = %79
  %91 = load ptr, ptr %6, align 8, !tbaa !11
  %92 = call i32 @strcmp(ptr noundef %91, ptr noundef @.str.77) #11
  %93 = icmp ne i32 %92, 0
  br i1 %93, label %98, label %94

94:                                               ; preds = %90
  %95 = load ptr, ptr %6, align 8, !tbaa !11
  %96 = load ptr, ptr %7, align 8, !tbaa !11
  %97 = call i32 @parse_transport_option(ptr noundef %95, ptr noundef %96, ptr noundef @push_options_config)
  store i32 %97, ptr %5, align 4
  store i32 1, ptr %12, align 4
  br label %161

98:                                               ; preds = %90
  %99 = load ptr, ptr %6, align 8, !tbaa !11
  %100 = call i32 @strcmp(ptr noundef %99, ptr noundef @.str.78) #11
  %101 = icmp ne i32 %100, 0
  br i1 %101, label %106, label %102

102:                                              ; preds = %98
  %103 = load ptr, ptr %6, align 8, !tbaa !11
  %104 = load ptr, ptr %7, align 8, !tbaa !11
  %105 = call i32 @git_config_colorbool(ptr noundef %103, ptr noundef %104)
  store i32 %105, ptr @push_use_color, align 4, !tbaa !4
  store i32 0, ptr %5, align 4
  store i32 1, ptr %12, align 4
  br label %161

106:                                              ; preds = %98
  %107 = load ptr, ptr %6, align 8, !tbaa !11
  %108 = call zeroext i1 @skip_prefix(ptr noundef %107, ptr noundef @.str.79, ptr noundef %10)
  br i1 %108, label %109, label %130

109:                                              ; preds = %106
  call void @llvm.lifetime.start.p0(i64 4, ptr %14) #9
  %110 = load ptr, ptr %10, align 8, !tbaa !11
  %111 = call i32 @parse_push_color_slot(ptr noundef %110)
  store i32 %111, ptr %14, align 4, !tbaa !4
  %112 = load i32, ptr %14, align 4, !tbaa !4
  %113 = icmp slt i32 %112, 0
  br i1 %113, label %114, label %115

114:                                              ; preds = %109
  store i32 0, ptr %5, align 4
  store i32 1, ptr %12, align 4
  br label %129

115:                                              ; preds = %109
  %116 = load ptr, ptr %7, align 8, !tbaa !11
  %117 = icmp ne ptr %116, null
  br i1 %117, label %122, label %118

118:                                              ; preds = %115
  %119 = load ptr, ptr %6, align 8, !tbaa !11
  %120 = call i32 @config_error_nonbool(ptr noundef %119)
  %121 = call i32 @const_error()
  store i32 %121, ptr %5, align 4
  store i32 1, ptr %12, align 4
  br label %129

122:                                              ; preds = %115
  %123 = load ptr, ptr %7, align 8, !tbaa !11
  %124 = load i32, ptr %14, align 4, !tbaa !4
  %125 = sext i32 %124 to i64
  %126 = getelementptr inbounds [2 x [75 x i8]], ptr @push_colors, i64 0, i64 %125
  %127 = getelementptr inbounds [75 x i8], ptr %126, i64 0, i64 0
  %128 = call i32 @color_parse(ptr noundef %123, ptr noundef %127)
  store i32 %128, ptr %5, align 4
  store i32 1, ptr %12, align 4
  br label %129

129:                                              ; preds = %122, %118, %114
  call void @llvm.lifetime.end.p0(i64 4, ptr %14) #9
  br label %161

130:                                              ; preds = %106
  %131 = load ptr, ptr %6, align 8, !tbaa !11
  %132 = call i32 @strcmp(ptr noundef %131, ptr noundef @.str.80) #11
  %133 = icmp ne i32 %132, 0
  br i1 %133, label %148, label %134

134:                                              ; preds = %130
  %135 = load ptr, ptr %6, align 8, !tbaa !11
  %136 = load ptr, ptr %7, align 8, !tbaa !11
  %137 = call i32 @git_config_bool(ptr noundef %135, ptr noundef %136)
  %138 = icmp ne i32 %137, 0
  br i1 %138, label %139, label %143

139:                                              ; preds = %134
  %140 = load ptr, ptr %11, align 8, !tbaa !51
  %141 = load i32, ptr %140, align 4, !tbaa !4
  %142 = or i32 %141, 65536
  store i32 %142, ptr %140, align 4, !tbaa !4
  br label %147

143:                                              ; preds = %134
  %144 = load ptr, ptr %11, align 8, !tbaa !51
  %145 = load i32, ptr %144, align 4, !tbaa !4
  %146 = and i32 %145, -65537
  store i32 %146, ptr %144, align 4, !tbaa !4
  br label %147

147:                                              ; preds = %143, %139
  store i32 0, ptr %5, align 4
  store i32 1, ptr %12, align 4
  br label %161

148:                                              ; preds = %130
  br label %149

149:                                              ; preds = %148
  br label %150

150:                                              ; preds = %149
  br label %151

151:                                              ; preds = %150
  br label %152

152:                                              ; preds = %151, %83
  br label %153

153:                                              ; preds = %152, %75
  br label %154

154:                                              ; preds = %153, %70
  br label %155

155:                                              ; preds = %154
  br label %156

156:                                              ; preds = %155
  %157 = load ptr, ptr %6, align 8, !tbaa !11
  %158 = load ptr, ptr %7, align 8, !tbaa !11
  %159 = load ptr, ptr %8, align 8, !tbaa !54
  %160 = call i32 @git_default_config(ptr noundef %157, ptr noundef %158, ptr noundef %159, ptr noundef null)
  store i32 %160, ptr %5, align 4
  store i32 1, ptr %12, align 4
  br label %161

161:                                              ; preds = %156, %147, %129, %102, %94, %64, %46, %32
  call void @llvm.lifetime.end.p0(i64 8, ptr %11) #9
  call void @llvm.lifetime.end.p0(i64 8, ptr %10) #9
  %162 = load i32, ptr %5, align 4
  ret i32 %162
}