; Function Attrs: nounwind uwtable
define internal i32 @git_push_config(ptr noundef %0, ptr noundef %1, ptr noundef %2, ptr noundef captures(none) %3) #0 {
  %5 = tail call i32 @strcmp(ptr noundef nonnull dereferenceable(1) %0, ptr noundef nonnull dereferenceable(16) @.str.70) #16
  %.not = icmp eq i32 %5, 0
  br i1 %.not, label %6, label %10

6:                                                ; preds = %4
  %7 = tail call i32 @git_config_bool(ptr noundef nonnull %0, ptr noundef %1) #14
  %.not46 = icmp eq i32 %7, 0
  %8 = load i32, ptr %3, align 4, !tbaa !4
  %9 = and i32 %8, -1025
  %masksel65 = select i1 %.not46, i32 0, i32 1024
  %storemerge = or disjoint i32 %9, %masksel65
  store i32 %storemerge, ptr %3, align 4, !tbaa !4
  br label %78

10:                                               ; preds = %4
  %11 = tail call i32 @strcmp(ptr noundef nonnull dereferenceable(1) %0, ptr noundef nonnull dereferenceable(21) @.str.71) #16
  %.not47 = icmp eq i32 %11, 0
  br i1 %.not47, label %12, label %17

12:                                               ; preds = %10
  %13 = tail call i32 @git_config_bool(ptr noundef nonnull %0, ptr noundef %1) #14
  %.not48 = icmp eq i32 %13, 0
  br i1 %.not48, label %78, label %14

14:                                               ; preds = %12
  %15 = load i32, ptr %3, align 4, !tbaa !4
  %16 = or i32 %15, 131072
  store i32 %16, ptr %3, align 4, !tbaa !4
  br label %78

17:                                               ; preds = %10
  %18 = tail call i32 @strcmp(ptr noundef nonnull dereferenceable(1) %0, ptr noundef nonnull dereferenceable(13) @.str.72) #16
  %.not49 = icmp eq i32 %18, 0
  br i1 %.not49, label %19, label %39

19:                                               ; preds = %17
  %20 = tail call i32 @git_parse_maybe_bool(ptr noundef %1) #14
  switch i32 %20, label %28 [
    i32 0, label %21
    i32 1, label %24
  ]

21:                                               ; preds = %19
  %22 = load i32, ptr %3, align 4, !tbaa !4
  %23 = and i32 %22, -6145
  store i32 %23, ptr %3, align 4, !tbaa !4
  br label %76

24:                                               ; preds = %19
  %25 = load i32, ptr %3, align 4, !tbaa !4
  %26 = and i32 %25, -6145
  %27 = or disjoint i32 %26, 2048
  store i32 %27, ptr %3, align 4, !tbaa !4
  br label %76

28:                                               ; preds = %19
  %29 = tail call i32 @strcasecmp(ptr noundef %1, ptr noundef nonnull @.str.73) #16
  %.not50 = icmp eq i32 %29, 0
  br i1 %.not50, label %30, label %34

30:                                               ; preds = %28
  %31 = load i32, ptr %3, align 4, !tbaa !4
  %32 = and i32 %31, -6145
  %33 = or disjoint i32 %32, 4096
  store i32 %33, ptr %3, align 4, !tbaa !4
  br label %76

34:                                               ; preds = %28
  %35 = load i32, ptr @git_gettext_enabled, align 4, !tbaa !4
  %.not4.i = icmp eq i32 %35, 0
  br i1 %.not4.i, label %_.exit, label %36

36:                                               ; preds = %34
  %37 = tail call ptr @dcgettext(ptr noundef null, ptr noundef nonnull @.str.74, i32 noundef 5) #14
  br label %_.exit

_.exit:                                           ; preds = %34, %36
  %.0.i = phi ptr [ %37, %36 ], [ @.str.74, %34 ]
  %38 = tail call i32 (ptr, ...) @error(ptr noundef %.0.i, ptr noundef nonnull %0) #14
  br label %78

39:                                               ; preds = %17
  %40 = tail call i32 @strcmp(ptr noundef nonnull dereferenceable(1) %0, ptr noundef nonnull dereferenceable(23) @.str.75) #16
  %.not51 = icmp eq i32 %40, 0
  br i1 %.not51, label %41, label %43

41:                                               ; preds = %39
  %42 = tail call i32 @parse_push_recurse_submodules_arg(ptr noundef nonnull %0, ptr noundef %1) #14
  store i32 %42, ptr @recurse_submodules, align 4, !tbaa !4
  br label %76

43:                                               ; preds = %39
  %44 = tail call i32 @strcmp(ptr noundef nonnull dereferenceable(1) %0, ptr noundef nonnull dereferenceable(18) @.str.76) #16
  %.not52 = icmp eq i32 %44, 0
  br i1 %.not52, label %45, label %48

45:                                               ; preds = %43
  %46 = tail call i32 @git_config_bool(ptr noundef nonnull %0, ptr noundef %1) #14
  %.not53 = icmp ne i32 %46, 0
  %47 = sext i1 %.not53 to i32
  store i32 %47, ptr @recurse_submodules, align 4, !tbaa !4
  br label %76

48:                                               ; preds = %43
  %49 = tail call i32 @strcmp(ptr noundef nonnull dereferenceable(1) %0, ptr noundef nonnull dereferenceable(16) @.str.77) #16
  %.not54 = icmp eq i32 %49, 0
  br i1 %.not54, label %50, label %52

50:                                               ; preds = %48
  %51 = tail call i32 @parse_transport_option(ptr noundef nonnull %0, ptr noundef %1, ptr noundef nonnull @push_options_config) #14
  br label %78

52:                                               ; preds = %48
  %53 = tail call i32 @strcmp(ptr noundef nonnull dereferenceable(1) %0, ptr noundef nonnull dereferenceable(11) @.str.78) #16
  %.not55 = icmp eq i32 %53, 0
  br i1 %.not55, label %54, label %.preheader.preheader

.preheader.preheader:                             ; preds = %52
  %scevgep = getelementptr i8, ptr %0, i64 11
  br label %.preheader

54:                                               ; preds = %52
  %55 = tail call i32 @git_config_colorbool(ptr noundef nonnull %0, ptr noundef %1) #14
  store i32 %55, ptr @push_use_color, align 4, !tbaa !4
  br label %78

.preheader:                                       ; preds = %.preheader.preheader, %56
  %.07.i = phi ptr [ %58, %56 ], [ %0, %.preheader.preheader ]
  %.06.i.idx = phi i64 [ %.06.i.add, %56 ], [ 0, %.preheader.preheader ]
  %exitcond = icmp eq i64 %.06.i.idx, 11
  br i1 %exitcond, label %61, label %56

56:                                               ; preds = %.preheader
  %.06.i.ptr = getelementptr inbounds nuw i8, ptr @.str.79, i64 %.06.i.idx
  %57 = load i8, ptr %.06.i.ptr, align 1, !tbaa !27
  %58 = getelementptr inbounds nuw i8, ptr %.07.i, i64 1
  %59 = load i8, ptr %.07.i, align 1, !tbaa !27
  %.06.i.add = add nuw nsw i64 %.06.i.idx, 1
  %60 = icmp eq i8 %59, %57
  br i1 %60, label %.preheader, label %skip_prefix.exit, !llvm.loop !41

61:                                               ; preds = %.preheader
  %62 = tail call fastcc i32 @parse_push_color_slot(ptr noundef nonnull %scevgep)
  %63 = icmp slt i32 %62, 0
  br i1 %63, label %78, label %64

64:                                               ; preds = %61
  %.not59 = icmp eq ptr %1, null
  br i1 %.not59, label %65, label %67

65:                                               ; preds = %64
  %66 = tail call i32 @config_error_nonbool(ptr noundef nonnull %0) #14
  br label %78

67:                                               ; preds = %64
  %68 = zext nneg i32 %62 to i64
  %69 = getelementptr inbounds nuw [2 x [75 x i8]], ptr @push_colors, i64 0, i64 %68
  %70 = tail call i32 @color_parse(ptr noundef nonnull %1, ptr noundef nonnull %69) #14
  br label %78

skip_prefix.exit:                                 ; preds = %56
  %71 = tail call i32 @strcmp(ptr noundef nonnull dereferenceable(1) %0, ptr noundef nonnull dereferenceable(24) @.str.80) #16
  %.not56 = icmp eq i32 %71, 0
  br i1 %.not56, label %72, label %76

72:                                               ; preds = %skip_prefix.exit
  %73 = tail call i32 @git_config_bool(ptr noundef nonnull %0, ptr noundef %1) #14
  %.not57 = icmp eq i32 %73, 0
  %74 = load i32, ptr %3, align 4, !tbaa !4
  %75 = and i32 %74, -65537
  %masksel = select i1 %.not57, i32 0, i32 65536
  %storemerge58 = or disjoint i32 %75, %masksel
  store i32 %storemerge58, ptr %3, align 4, !tbaa !4
  br label %78

76:                                               ; preds = %41, %skip_prefix.exit, %45, %21, %24, %30
  %77 = tail call i32 @git_default_config(ptr noundef nonnull %0, ptr noundef %1, ptr noundef %2, ptr noundef null) #14
  br label %78

78:                                               ; preds = %65, %67, %61, %12, %14, %76, %72, %54, %50, %_.exit, %6
  %.0 = phi i32 [ %77, %76 ], [ 0, %72 ], [ 0, %54 ], [ %51, %50 ], [ -1, %_.exit ], [ 0, %6 ], [ 0, %14 ], [ 0, %12 ], [ %70, %67 ], [ -1, %65 ], [ 0, %61 ]
  ret i32 %.0
}